target datalayout = "e-m:e-p270:32:32-p271:32:32-p272:64:64-i64:64-i128:128-f80:128-n8:16:32:64-S128"
target triple = "x86_64-pc-linux-gnu"

@hf_dplay_type_13_id_to = internal global i32 0, align 4
@hf_dplay_type_13_player_id = internal global i32 0, align 4
@hf_dplay_type_13_group_id = internal global i32 0, align 4
@hf_dplay_type_13_create_offset = internal global i32 0, align 4
@hf_dplay_type_13_password_offset = internal global i32 0, align 4
@hf_dplay_type_13_password = internal global i32 0, align 4
@hf_dplay_type_13_tick_count = internal global i32 0, align 4

; Function Attrs: null_pointer_is_valid sspstrong uwtable
define internal i32 @display_unicode_string(ptr noundef %0, i32 noundef %1, ptr noundef %2, i32 noundef %3) #0 {
  %5 = alloca ptr, align 8
  %6 = alloca i32, align 4
  %7 = alloca ptr, align 8
  %8 = alloca i32, align 4
  %9 = alloca ptr, align 8
  %10 = alloca i32, align 4
  store ptr %0, ptr %5, align 8
  store i32 %1, ptr %6, align 4
  store ptr %2, ptr %7, align 8
  store i32 %3, ptr %8, align 4
  call void @llvm.lifetime.start.p0(i64 8, ptr %9) #5
  call void @llvm.lifetime.start.p0(i64 4, ptr %10) #5
  %11 = call ptr @wmem_packet_scope()
  %12 = load ptr, ptr %7, align 8
  %13 = load i32, ptr %8, align 4
  %14 = call ptr @tvb_get_stringz_enc(ptr noundef %11, ptr noundef %12, i32 noundef %13, ptr noundef %10, i32 noundef -2147483644)
  store ptr %14, ptr %9, align 8
  %15 = load ptr, ptr %5, align 8
  %16 = load i32, ptr %6, align 4
  %17 = load ptr, ptr %7, align 8
  %18 = load i32, ptr %8, align 4
  %19 = load i32, ptr %10, align 4
  %20 = load ptr, ptr %9, align 8
  %21 = call ptr @proto_tree_add_string(ptr noundef %15, i32 noundef %16, ptr noundef %17, i32 noundef %18, i32 noundef %19, ptr noundef %20)
  %22 = load i32, ptr %8, align 4
  %23 = load i32, ptr %10, align 4
  %24 = add i32 %22, %23
  call void @llvm.lifetime.end.p0(i64 4, ptr %10) #5
  call void @llvm.lifetime.end.p0(i64 8, ptr %9) #5
  ret i32 %24
}

; Function Attrs: null_pointer_is_valid sspstrong uwtable
define internal i32 @dissect_type13_message(ptr noundef %0, ptr noundef %1, i32 noundef %2) #0 {
  %4 = alloca ptr, align 8
  %5 = alloca ptr, align 8
  %6 = alloca i32, align 4
  %7 = alloca i32, align 4
  %8 = alloca i32, align 4
  store ptr %0, ptr %4, align 8
  store ptr %1, ptr %5, align 8
  store i32 %2, ptr %6, align 4
  call void @llvm.lifetime.start.p0(i64 4, ptr %7) #5
  call void @llvm.lifetime.start.p0(i64 4, ptr %8) #5
  %9 = load ptr, ptr %4, align 8
  %10 = load i32, ptr @hf_dplay_type_13_id_to, align 4
  %11 = load ptr, ptr %5, align 8
  %12 = load i32, ptr %6, align 4
  %13 = call ptr @proto_tree_add_item(ptr noundef %9, i32 noundef %10, ptr noundef %11, i32 noundef %12, i32 noundef 4, i32 noundef 0)
  %14 = load i32, ptr %6, align 4
  %15 = add i32 %14, 4
  store i32 %15, ptr %6, align 4
  %16 = load ptr, ptr %4, align 8
  %17 = load i32, ptr @hf_dplay_type_13_player_id, align 4
  %18 = load ptr, ptr %5, align 8
  %19 = load i32, ptr %6, align 4
  %20 = call ptr @proto_tree_add_item(ptr noundef %16, i32 noundef %17, ptr noundef %18, i32 noundef %19, i32 noundef 4, i32 noundef 0)
  %21 = load i32, ptr %6, align 4
  %22 = add i32 %21, 4
  store i32 %22, ptr %6, align 4
  %23 = load ptr, ptr %4, align 8
  %24 = load i32, ptr @hf_dplay_type_13_group_id, align 4
  %25 = load ptr, ptr %5, align 8
  %26 = load i32, ptr %6, align 4
  %27 = call ptr @proto_tree_add_item(ptr noundef %23, i32 noundef %24, ptr noundef %25, i32 noundef %26, i32 noundef 4, i32 noundef 0)
  %28 = load i32, ptr %6, align 4
  %29 = add i32 %28, 4
  store i32 %29, ptr %6, align 4
  %30 = load ptr, ptr %5, align 8
  %31 = load i32, ptr %6, align 4
  %32 = call i32 @tvb_get_letohl(ptr noundef %30, i32 noundef %31)
  store i32 %32, ptr %7, align 4
  %33 = load ptr, ptr %4, align 8
  %34 = load i32, ptr @hf_dplay_type_13_create_offset, align 4
  %35 = load ptr, ptr %5, align 8
  %36 = load i32, ptr %6, align 4
  %37 = call ptr @proto_tree_add_item(ptr noundef %33, i32 noundef %34, ptr noundef %35, i32 noundef %36, i32 noundef 4, i32 noundef -2147483648)
  %38 = load i32, ptr %6, align 4
  %39 = add i32 %38, 4
  store i32 %39, ptr %6, align 4
  %40 = load ptr, ptr %5, align 8
  %41 = load i32, ptr %6, align 4
  %42 = call i32 @tvb_get_letohl(ptr noundef %40, i32 noundef %41)
  store i32 %42, ptr %8, align 4
  %43 = load ptr, ptr %4, align 8
  %44 = load i32, ptr @hf_dplay_type_13_password_offset, align 4
  %45 = load ptr, ptr %5, align 8
  %46 = load i32, ptr %6, align 4
  %47 = call ptr @proto_tree_add_item(ptr noundef %43, i32 noundef %44, ptr noundef %45, i32 noundef %46, i32 noundef 4, i32 noundef -2147483648)
  %48 = load i32, ptr %6, align 4
  %49 = add i32 %48, 4
  store i32 %49, ptr %6, align 4
  %50 = load i32, ptr %7, align 4
  %51 = icmp ne i32 %50, 0
  br i1 %51, label %52, label %57

52:                                               ; preds = %3
  %53 = load ptr, ptr %4, align 8
  %54 = load ptr, ptr %5, align 8
  %55 = load i32, ptr %6, align 4
  %56 = call i32 @dissect_packed_player(ptr noundef %53, ptr noundef %54, i32 noundef %55)
  store i32 %56, ptr %6, align 4
  br label %57

57:                                               ; preds = %52, %3
  %58 = load i32, ptr %8, align 4
  %59 = icmp ne i32 %58, 0
  br i1 %59, label %60, label %66

60:                                               ; preds = %57
  %61 = load ptr, ptr %4, align 8
  %62 = load i32, ptr @hf_dplay_type_13_password, align 4
  %63 = load ptr, ptr %5, align 8
  %64 = load i32, ptr %6, align 4
  %65 = call i32 @display_unicode_string(ptr noundef %61, i32 noundef %62, ptr noundef %63, i32 noundef %64)
  store i32 %65, ptr %6, align 4
  br label %66

66:                                               ; preds = %60, %57
  %67 = load ptr, ptr %4, align 8
  %68 = load i32, ptr @hf_dplay_type_13_tick_count, align 4
  %69 = load ptr, ptr %5, align 8
  %70 = load i32, ptr %6, align 4
  %71 = call ptr @proto_tree_add_item(ptr noundef %67, i32 noundef %68, ptr noundef %69, i32 noundef %70, i32 noundef 4, i32 noundef 0)
  %72 = load i32, ptr %6, align 4
  %73 = add i32 %72, 4
  store i32 %73, ptr %6, align 4
  %74 = load i32, ptr %6, align 4
  call void @llvm.lifetime.end.p0(i64 4, ptr %8) #5
  call void @llvm.lifetime.end.p0(i64 4, ptr %7) #5
  ret i32 %74
}